target datalayout = "e-m:e-p270:32:32-p271:32:32-p272:64:64-i64:64-i128:128-f80:128-n8:16:32:64-S128"
target triple = "x86_64-pc-linux-gnu"

%struct.AVFilterContext = type { ptr, ptr, ptr, ptr, ptr, i32, ptr, ptr, i32, ptr, ptr, i32, i32, ptr, ptr, ptr, ptr, i32, ptr, i32, i32 }
%struct.AVChannelLayout = type { i32, i32, %union.anon.1, ptr }
%union.anon.1 = type { i64 }
%struct.AVRational = type { i32, i32 }
%struct.ChromakeyContext = type { ptr, [4 x i8], [2 x i16], float, float, i32, i32, i32, i32, i32, i32, ptr }
%struct.AVFrame = type { [8 x ptr], [8 x i32], ptr, i32, i32, i32, i32, i32, %struct.AVRational, i64, i64, %struct.AVRational, i32, ptr, i32, i32, [8 x ptr], ptr, i32, ptr, i32, i32, i32, i32, i32, i32, i32, i64, ptr, i32, ptr, ptr, i64, i64, i64, i64, ptr, %struct.AVChannelLayout, i64 }

; Function Attrs: alwaysinline nounwind willreturn memory(none) uwtable
define internal double @av_clipd_c(double noundef %0, double noundef %1, double noundef %2) #8 {
  %4 = alloca double, align 8
  %5 = alloca double, align 8
  %6 = alloca double, align 8
  store double %0, ptr %4, align 8, !tbaa !83
  store double %1, ptr %5, align 8, !tbaa !83
  store double %2, ptr %6, align 8, !tbaa !83
  %7 = load double, ptr %4, align 8, !tbaa !83
  %8 = load double, ptr %5, align 8, !tbaa !83
  %9 = fcmp nsz ogt double %7, %8
  br i1 %9, label %10, label %12

10:                                               ; preds = %3
  %11 = load double, ptr %4, align 8, !tbaa !83
  br label %14

12:                                               ; preds = %3
  %13 = load double, ptr %5, align 8, !tbaa !83
  br label %14

14:                                               ; preds = %12, %10
  %15 = phi nsz double [ %11, %10 ], [ %13, %12 ]
  %16 = load double, ptr %6, align 8, !tbaa !83
  %17 = fcmp nsz ogt double %15, %16
  br i1 %17, label %18, label %20

18:                                               ; preds = %14
  %19 = load double, ptr %6, align 8, !tbaa !83
  br label %30

20:                                               ; preds = %14
  %21 = load double, ptr %4, align 8, !tbaa !83
  %22 = load double, ptr %5, align 8, !tbaa !83
  %23 = fcmp nsz ogt double %21, %22
  br i1 %23, label %24, label %26

24:                                               ; preds = %20
  %25 = load double, ptr %4, align 8, !tbaa !83
  br label %28

26:                                               ; preds = %20
  %27 = load double, ptr %5, align 8, !tbaa !83
  br label %28

28:                                               ; preds = %26, %24
  %29 = phi nsz double [ %25, %24 ], [ %27, %26 ]
  br label %30

30:                                               ; preds = %28, %18
  %31 = phi nsz double [ %19, %18 ], [ %29, %28 ]
  ret double %31
}

; Function Attrs: nounwind uwtable
define internal i32 @do_chromahold_slice(ptr noundef %0, ptr noundef %1, i32 noundef %2, i32 noundef %3) #0 {
  %5 = alloca ptr, align 8
  %6 = alloca ptr, align 8
  %7 = alloca i32, align 4
  %8 = alloca i32, align 4
  %9 = alloca ptr, align 8
  %10 = alloca ptr, align 8
  %11 = alloca i32, align 4
  %12 = alloca i32, align 4
  %13 = alloca i32, align 4
  %14 = alloca i32, align 4
  %15 = alloca i32, align 4
  %16 = alloca i32, align 4
  %17 = alloca i32, align 4
  %18 = alloca double, align 8
  %19 = alloca i32, align 4
  %20 = alloca i32, align 4
  %21 = alloca double, align 8
  store ptr %0, ptr %5, align 8, !tbaa !4
  store ptr %1, ptr %6, align 8, !tbaa !69
  store i32 %2, ptr %7, align 4, !tbaa !11
  store i32 %3, ptr %8, align 4, !tbaa !11
  call void @llvm.lifetime.start.p0(i64 8, ptr %9) #9
  %22 = load ptr, ptr %5, align 8, !tbaa !4
  %23 = getelementptr inbounds nuw %struct.AVFilterContext, ptr %22, i32 0, i32 9
  %24 = load ptr, ptr %23, align 8, !tbaa !36
  store ptr %24, ptr %9, align 8, !tbaa !37
  call void @llvm.lifetime.start.p0(i64 8, ptr %10) #9
  %25 = load ptr, ptr %6, align 8, !tbaa !69
  store ptr %25, ptr %10, align 8, !tbaa !26
  call void @llvm.lifetime.start.p0(i64 4, ptr %11) #9
  %26 = load ptr, ptr %10, align 8, !tbaa !26
  %27 = getelementptr inbounds nuw %struct.AVFrame, ptr %26, i32 0, i32 4
  %28 = load i32, ptr %27, align 4, !tbaa !42
  %29 = load ptr, ptr %9, align 8, !tbaa !37
  %30 = getelementptr inbounds nuw %struct.ChromakeyContext, ptr %29, i32 0, i32 10
  %31 = load i32, ptr %30, align 4, !tbaa !55
  %32 = ashr i32 %28, %31
  %33 = load i32, ptr %7, align 4, !tbaa !11
  %34 = mul nsw i32 %32, %33
  %35 = load i32, ptr %8, align 4, !tbaa !11
  %36 = sdiv i32 %34, %35
  store i32 %36, ptr %11, align 4, !tbaa !11
  call void @llvm.lifetime.start.p0(i64 4, ptr %12) #9
  %37 = load ptr, ptr %10, align 8, !tbaa !26
  %38 = getelementptr inbounds nuw %struct.AVFrame, ptr %37, i32 0, i32 4
  %39 = load i32, ptr %38, align 4, !tbaa !42
  %40 = load ptr, ptr %9, align 8, !tbaa !37
  %41 = getelementptr inbounds nuw %struct.ChromakeyContext, ptr %40, i32 0, i32 10
  %42 = load i32, ptr %41, align 4, !tbaa !55
  %43 = ashr i32 %39, %42
  %44 = load i32, ptr %7, align 4, !tbaa !11
  %45 = add nsw i32 %44, 1
  %46 = mul nsw i32 %43, %45
  %47 = load i32, ptr %8, align 4, !tbaa !11
  %48 = sdiv i32 %46, %47
  store i32 %48, ptr %12, align 4, !tbaa !11
  call void @llvm.lifetime.start.p0(i64 4, ptr %13) #9
  call void @llvm.lifetime.start.p0(i64 4, ptr %14) #9
  call void @llvm.lifetime.start.p0(i64 4, ptr %15) #9
  %49 = load i32, ptr %11, align 4, !tbaa !11
  store i32 %49, ptr %14, align 4, !tbaa !11
  br label %50

50:                                               ; preds = %226, %4
  %51 = load i32, ptr %14, align 4, !tbaa !11
  %52 = load i32, ptr %12, align 4, !tbaa !11
  %53 = icmp slt i32 %51, %52
  br i1 %53, label %54, label %229

54:                                               ; preds = %50
  store i32 0, ptr %13, align 4, !tbaa !11
  br label %55

55:                                               ; preds = %222, %54
  %56 = load i32, ptr %13, align 4, !tbaa !11
  %57 = load ptr, ptr %10, align 8, !tbaa !26
  %58 = getelementptr inbounds nuw %struct.AVFrame, ptr %57, i32 0, i32 3
  %59 = load i32, ptr %58, align 8, !tbaa !70
  %60 = load ptr, ptr %9, align 8, !tbaa !37
  %61 = getelementptr inbounds nuw %struct.ChromakeyContext, ptr %60, i32 0, i32 9
  %62 = load i32, ptr %61, align 8, !tbaa !53
  %63 = ashr i32 %59, %62
  %64 = icmp slt i32 %56, %63
  br i1 %64, label %65, label %225

65:                                               ; preds = %55
  call void @llvm.lifetime.start.p0(i64 4, ptr %16) #9
  %66 = load ptr, ptr %10, align 8, !tbaa !26
  %67 = getelementptr inbounds nuw %struct.AVFrame, ptr %66, i32 0, i32 0
  %68 = getelementptr inbounds [8 x ptr], ptr %67, i64 0, i64 1
  %69 = load ptr, ptr %68, align 8, !tbaa !9
  %70 = load ptr, ptr %10, align 8, !tbaa !26
  %71 = getelementptr inbounds nuw %struct.AVFrame, ptr %70, i32 0, i32 1
  %72 = getelementptr inbounds [8 x i32], ptr %71, i64 0, i64 1
  %73 = load i32, ptr %72, align 4, !tbaa !11
  %74 = load i32, ptr %14, align 4, !tbaa !11
  %75 = mul nsw i32 %73, %74
  %76 = load i32, ptr %13, align 4, !tbaa !11
  %77 = add nsw i32 %75, %76
  %78 = sext i32 %77 to i64
  %79 = getelementptr inbounds i8, ptr %69, i64 %78
  %80 = load i8, ptr %79, align 1, !tbaa !63
  %81 = zext i8 %80 to i32
  store i32 %81, ptr %16, align 4, !tbaa !11
  call void @llvm.lifetime.start.p0(i64 4, ptr %17) #9
  %82 = load ptr, ptr %10, align 8, !tbaa !26
  %83 = getelementptr inbounds nuw %struct.AVFrame, ptr %82, i32 0, i32 0
  %84 = getelementptr inbounds [8 x ptr], ptr %83, i64 0, i64 2
  %85 = load ptr, ptr %84, align 8, !tbaa !9
  %86 = load ptr, ptr %10, align 8, !tbaa !26
  %87 = getelementptr inbounds nuw %struct.AVFrame, ptr %86, i32 0, i32 1
  %88 = getelementptr inbounds [8 x i32], ptr %87, i64 0, i64 2
  %89 = load i32, ptr %88, align 8, !tbaa !11
  %90 = load i32, ptr %14, align 4, !tbaa !11
  %91 = mul nsw i32 %89, %90
  %92 = load i32, ptr %13, align 4, !tbaa !11
  %93 = add nsw i32 %91, %92
  %94 = sext i32 %93 to i64
  %95 = getelementptr inbounds i8, ptr %85, i64 %94
  %96 = load i8, ptr %95, align 1, !tbaa !63
  %97 = zext i8 %96 to i32
  store i32 %97, ptr %17, align 4, !tbaa !11
  call void @llvm.lifetime.start.p0(i64 8, ptr %18) #9
  call void @llvm.lifetime.start.p0(i64 4, ptr %19) #9
  call void @llvm.lifetime.start.p0(i64 4, ptr %20) #9
  %98 = load i32, ptr %16, align 4, !tbaa !11
  %99 = load ptr, ptr %9, align 8, !tbaa !37
  %100 = getelementptr inbounds nuw %struct.ChromakeyContext, ptr %99, i32 0, i32 2
  %101 = getelementptr inbounds [2 x i16], ptr %100, i64 0, i64 0
  %102 = load i16, ptr %101, align 4, !tbaa !64
  %103 = zext i16 %102 to i32
  %104 = sub nsw i32 %98, %103
  store i32 %104, ptr %19, align 4, !tbaa !11
  %105 = load i32, ptr %17, align 4, !tbaa !11
  %106 = load ptr, ptr %9, align 8, !tbaa !37
  %107 = getelementptr inbounds nuw %struct.ChromakeyContext, ptr %106, i32 0, i32 2
  %108 = getelementptr inbounds [2 x i16], ptr %107, i64 0, i64 1
  %109 = load i16, ptr %108, align 2, !tbaa !64
  %110 = zext i16 %109 to i32
  %111 = sub nsw i32 %105, %110
  store i32 %111, ptr %20, align 4, !tbaa !11
  %112 = load i32, ptr %19, align 4, !tbaa !11
  %113 = load i32, ptr %19, align 4, !tbaa !11
  %114 = mul nsw i32 %112, %113
  %115 = load i32, ptr %20, align 4, !tbaa !11
  %116 = load i32, ptr %20, align 4, !tbaa !11
  %117 = mul nsw i32 %115, %116
  %118 = add nsw i32 %114, %117
  %119 = sitofp i32 %118 to double
  %120 = fdiv nsz double %119, 1.300500e+05
  %121 = call nsz double @llvm.sqrt.f64(double %120)
  store double %121, ptr %18, align 8, !tbaa !83
  %122 = load double, ptr %18, align 8, !tbaa !83
  %123 = load ptr, ptr %9, align 8, !tbaa !37
  %124 = getelementptr inbounds nuw %struct.ChromakeyContext, ptr %123, i32 0, i32 3
  %125 = load float, ptr %124, align 8, !tbaa !85
  %126 = fpext nsz float %125 to double
  %127 = fcmp nsz ogt double %122, %126
  %128 = zext i1 %127 to i32
  store i32 %128, ptr %15, align 4, !tbaa !11
  %129 = load ptr, ptr %9, align 8, !tbaa !37
  %130 = getelementptr inbounds nuw %struct.ChromakeyContext, ptr %129, i32 0, i32 4
  %131 = load float, ptr %130, align 4, !tbaa !86
  %132 = fpext nsz float %131 to double
  %133 = fcmp nsz ogt double %132, 1.000000e-04
  br i1 %133, label %134, label %188

134:                                              ; preds = %65
  call void @llvm.lifetime.start.p0(i64 8, ptr %21) #9
  %135 = load double, ptr %18, align 8, !tbaa !83
  %136 = load ptr, ptr %9, align 8, !tbaa !37
  %137 = getelementptr inbounds nuw %struct.ChromakeyContext, ptr %136, i32 0, i32 3
  %138 = load float, ptr %137, align 8, !tbaa !85
  %139 = fpext nsz float %138 to double
  %140 = fsub nsz double %135, %139
  %141 = load ptr, ptr %9, align 8, !tbaa !37
  %142 = getelementptr inbounds nuw %struct.ChromakeyContext, ptr %141, i32 0, i32 4
  %143 = load float, ptr %142, align 4, !tbaa !86
  %144 = fpext nsz float %143 to double
  %145 = fdiv nsz double %140, %144
  %146 = call nsz double @av_clipd_c(double noundef %145, double noundef 0.000000e+00, double noundef 1.000000e+00) #12
  %147 = fsub nsz double 1.000000e+00, %146
  store double %147, ptr %21, align 8, !tbaa !83
  %148 = load i32, ptr %16, align 4, !tbaa !11
  %149 = sub nsw i32 %148, 128
  %150 = sitofp i32 %149 to double
  %151 = load double, ptr %21, align 8, !tbaa !83
  %152 = call nsz double @llvm.fmuladd.f64(double %150, double %151, double 1.280000e+02)
  %153 = fptoui double %152 to i8
  %154 = load ptr, ptr %10, align 8, !tbaa !26
  %155 = getelementptr inbounds nuw %struct.AVFrame, ptr %154, i32 0, i32 0
  %156 = getelementptr inbounds [8 x ptr], ptr %155, i64 0, i64 1
  %157 = load ptr, ptr %156, align 8, !tbaa !9
  %158 = load ptr, ptr %10, align 8, !tbaa !26
  %159 = getelementptr inbounds nuw %struct.AVFrame, ptr %158, i32 0, i32 1
  %160 = getelementptr inbounds [8 x i32], ptr %159, i64 0, i64 1
  %161 = load i32, ptr %160, align 4, !tbaa !11
  %162 = load i32, ptr %14, align 4, !tbaa !11
  %163 = mul nsw i32 %161, %162
  %164 = load i32, ptr %13, align 4, !tbaa !11
  %165 = add nsw i32 %163, %164
  %166 = sext i32 %165 to i64
  %167 = getelementptr inbounds i8, ptr %157, i64 %166
  store i8 %153, ptr %167, align 1, !tbaa !63
  %168 = load i32, ptr %17, align 4, !tbaa !11
  %169 = sub nsw i32 %168, 128
  %170 = sitofp i32 %169 to double
  %171 = load double, ptr %21, align 8, !tbaa !83
  %172 = call nsz double @llvm.fmuladd.f64(double %170, double %171, double 1.280000e+02)
  %173 = fptoui double %172 to i8
  %174 = load ptr, ptr %10, align 8, !tbaa !26
  %175 = getelementptr inbounds nuw %struct.AVFrame, ptr %174, i32 0, i32 0
  %176 = getelementptr inbounds [8 x ptr], ptr %175, i64 0, i64 2
  %177 = load ptr, ptr %176, align 8, !tbaa !9
  %178 = load ptr, ptr %10, align 8, !tbaa !26
  %179 = getelementptr inbounds nuw %struct.AVFrame, ptr %178, i32 0, i32 1
  %180 = getelementptr inbounds [8 x i32], ptr %179, i64 0, i64 2
  %181 = load i32, ptr %180, align 8, !tbaa !11
  %182 = load i32, ptr %14, align 4, !tbaa !11
  %183 = mul nsw i32 %181, %182
  %184 = load i32, ptr %13, align 4, !tbaa !11
  %185 = add nsw i32 %183, %184
  %186 = sext i32 %185 to i64
  %187 = getelementptr inbounds i8, ptr %177, i64 %186
  store i8 %173, ptr %187, align 1, !tbaa !63
  call void @llvm.lifetime.end.p0(i64 8, ptr %21) #9
  br label %221

188:                                              ; preds = %65
  %189 = load i32, ptr %15, align 4, !tbaa !11
  %190 = icmp ne i32 %189, 0
  br i1 %190, label %191, label %220

191:                                              ; preds = %188
  %192 = load ptr, ptr %10, align 8, !tbaa !26
  %193 = getelementptr inbounds nuw %struct.AVFrame, ptr %192, i32 0, i32 0
  %194 = getelementptr inbounds [8 x ptr], ptr %193, i64 0, i64 1
  %195 = load ptr, ptr %194, align 8, !tbaa !9
  %196 = load ptr, ptr %10, align 8, !tbaa !26
  %197 = getelementptr inbounds nuw %struct.AVFrame, ptr %196, i32 0, i32 1
  %198 = getelementptr inbounds [8 x i32], ptr %197, i64 0, i64 1
  %199 = load i32, ptr %198, align 4, !tbaa !11
  %200 = load i32, ptr %14, align 4, !tbaa !11
  %201 = mul nsw i32 %199, %200
  %202 = load i32, ptr %13, align 4, !tbaa !11
  %203 = add nsw i32 %201, %202
  %204 = sext i32 %203 to i64
  %205 = getelementptr inbounds i8, ptr %195, i64 %204
  store i8 -128, ptr %205, align 1, !tbaa !63
  %206 = load ptr, ptr %10, align 8, !tbaa !26
  %207 = getelementptr inbounds nuw %struct.AVFrame, ptr %206, i32 0, i32 0
  %208 = getelementptr inbounds [8 x ptr], ptr %207, i64 0, i64 2
  %209 = load ptr, ptr %208, align 8, !tbaa !9
  %210 = load ptr, ptr %10, align 8, !tbaa !26
  %211 = getelementptr inbounds nuw %struct.AVFrame, ptr %210, i32 0, i32 1
  %212 = getelementptr inbounds [8 x i32], ptr %211, i64 0, i64 2
  %213 = load i32, ptr %212, align 8, !tbaa !11
  %214 = load i32, ptr %14, align 4, !tbaa !11
  %215 = mul nsw i32 %213, %214
  %216 = load i32, ptr %13, align 4, !tbaa !11
  %217 = add nsw i32 %215, %216
  %218 = sext i32 %217 to i64
  %219 = getelementptr inbounds i8, ptr %209, i64 %218
  store i8 -128, ptr %219, align 1, !tbaa !63
  br label %220

220:                                              ; preds = %191, %188
  br label %221

221:                                              ; preds = %220, %134
  call void @llvm.lifetime.end.p0(i64 4, ptr %20) #9
  call void @llvm.lifetime.end.p0(i64 4, ptr %19) #9
  call void @llvm.lifetime.end.p0(i64 8, ptr %18) #9
  call void @llvm.lifetime.end.p0(i64 4, ptr %17) #9
  call void @llvm.lifetime.end.p0(i64 4, ptr %16) #9
  br label %222

222:                                              ; preds = %221
  %223 = load i32, ptr %13, align 4, !tbaa !11
  %224 = add nsw i32 %223, 1
  store i32 %224, ptr %13, align 4, !tbaa !11
  br label %55, !llvm.loop !87

225:                                              ; preds = %55
  br label %226

226:                                              ; preds = %225
  %227 = load i32, ptr %14, align 4, !tbaa !11
  %228 = add nsw i32 %227, 1
  store i32 %228, ptr %14, align 4, !tbaa !11
  br label %50, !llvm.loop !88

229:                                              ; preds = %50
  call void @llvm.lifetime.end.p0(i64 4, ptr %15) #9
  call void @llvm.lifetime.end.p0(i64 4, ptr %14) #9
  call void @llvm.lifetime.end.p0(i64 4, ptr %13) #9
  call void @llvm.lifetime.end.p0(i64 4, ptr %12) #9
  call void @llvm.lifetime.end.p0(i64 4, ptr %11) #9
  call void @llvm.lifetime.end.p0(i64 8, ptr %10) #9
  call void @llvm.lifetime.end.p0(i64 8, ptr %9) #9
  ret i32 0
}