; Function Attrs: nofree norecurse nosync nounwind memory(readwrite, inaccessiblemem: none) uwtable
define internal noundef i32 @do_chromahold_slice(ptr noundef readonly captures(none) %0, ptr noundef readonly captures(none) %1, i32 noundef %2, i32 noundef %3) #7 {
  %5 = getelementptr inbounds nuw i8, ptr %0, i64 72
  %6 = load ptr, ptr %5, align 8, !tbaa !31
  %7 = getelementptr inbounds nuw i8, ptr %1, i64 108
  %8 = load i32, ptr %7, align 4, !tbaa !35
  %9 = getelementptr inbounds nuw i8, ptr %6, i64 44
  %10 = load i32, ptr %9, align 4, !tbaa !46
  %11 = ashr i32 %8, %10
  %12 = mul nsw i32 %11, %2
  %13 = sdiv i32 %12, %3
  %14 = add nsw i32 %2, 1
  %15 = mul nsw i32 %11, %14
  %16 = sdiv i32 %15, %3
  %17 = icmp slt i32 %13, %16
  br i1 %17, label %.preheader.lr.ph, label %._crit_edge64

.preheader.lr.ph:                                 ; preds = %4
  %18 = getelementptr inbounds nuw i8, ptr %1, i64 104
  %19 = getelementptr inbounds nuw i8, ptr %6, i64 40
  %20 = getelementptr inbounds nuw i8, ptr %1, i64 8
  %21 = getelementptr inbounds nuw i8, ptr %1, i64 68
  %22 = getelementptr inbounds nuw i8, ptr %1, i64 16
  %23 = getelementptr inbounds nuw i8, ptr %1, i64 72
  %24 = getelementptr inbounds nuw i8, ptr %6, i64 12
  %25 = getelementptr inbounds nuw i8, ptr %6, i64 14
  %26 = getelementptr inbounds nuw i8, ptr %6, i64 16
  %27 = getelementptr inbounds nuw i8, ptr %6, i64 20
  %.pre = load i32, ptr %18, align 8, !tbaa !60
  %.pre65 = load i32, ptr %19, align 8, !tbaa !44
  br label %.preheader

.preheader:                                       ; preds = %.preheader.lr.ph, %._crit_edge
  %28 = phi i32 [ %.pre65, %.preheader.lr.ph ], [ %95, %._crit_edge ]
  %29 = phi i32 [ %.pre, %.preheader.lr.ph ], [ %96, %._crit_edge ]
  %.06063 = phi i32 [ %13, %.preheader.lr.ph ], [ %97, %._crit_edge ]
  %30 = ashr i32 %29, %28
  %31 = icmp sgt i32 %30, 0
  br i1 %31, label %.lr.ph, label %._crit_edge

.lr.ph:                                           ; preds = %.preheader, %89
  %.062 = phi i32 [ %90, %89 ], [ 0, %.preheader ]
  %32 = load ptr, ptr %20, align 8, !tbaa !61
  %33 = load i32, ptr %21, align 4, !tbaa !62
  %34 = mul nsw i32 %33, %.06063
  %35 = add nsw i32 %34, %.062
  %36 = sext i32 %35 to i64
  %37 = getelementptr inbounds i8, ptr %32, i64 %36
  %38 = load i8, ptr %37, align 1, !tbaa !54
  %39 = zext i8 %38 to i32
  %40 = load ptr, ptr %22, align 8, !tbaa !61
  %41 = load i32, ptr %23, align 8, !tbaa !62
  %42 = mul nsw i32 %41, %.06063
  %43 = add nsw i32 %42, %.062
  %44 = sext i32 %43 to i64
  %45 = getelementptr inbounds i8, ptr %40, i64 %44
  %46 = load i8, ptr %45, align 1, !tbaa !54
  %47 = zext i8 %46 to i32
  %48 = load i16, ptr %24, align 4, !tbaa !55
  %49 = zext i16 %48 to i32
  %50 = sub nsw i32 %39, %49
  %51 = load i16, ptr %25, align 2, !tbaa !55
  %52 = zext i16 %51 to i32
  %53 = sub nsw i32 %47, %52
  %54 = mul nsw i32 %50, %50
  %55 = mul nsw i32 %53, %53
  %56 = add nuw nsw i32 %55, %54
  %57 = uitofp nneg i32 %56 to double
  %58 = fdiv nsz double %57, 1.300500e+05
  %59 = tail call nsz double @llvm.sqrt.f64(double %58)
  %60 = load float, ptr %26, align 8, !tbaa !68
  %61 = fpext nsz float %60 to double
  %62 = load float, ptr %27, align 4, !tbaa !67
  %63 = fpext nsz float %62 to double
  %64 = fcmp nsz ogt double %63, 1.000000e-04
  br i1 %64, label %65, label %80

65:                                               ; preds = %.lr.ph
  %66 = fsub nsz double %59, %61
  %67 = fdiv nsz double %66, %63
  %68 = fcmp nsz ogt double %67, 0.000000e+00
  %69 = select nsz i1 %68, double %67, double 0.000000e+00
  %70 = fcmp nsz ogt double %69, 1.000000e+00
  %..i = select nsz i1 %70, double 1.000000e+00, double %69
  %71 = fsub nsz double 1.000000e+00, %..i
  %72 = add nsw i32 %39, -128
  %73 = sitofp i32 %72 to double
  %74 = tail call nsz double @llvm.fmuladd.f64(double %73, double %71, double 1.280000e+02)
  %75 = fptoui double %74 to i8
  store i8 %75, ptr %37, align 1, !tbaa !54
  %76 = add nsw i32 %47, -128
  %77 = sitofp i32 %76 to double
  %78 = tail call nsz double @llvm.fmuladd.f64(double %77, double %71, double 1.280000e+02)
  %79 = fptoui double %78 to i8
  br label %.sink.split

80:                                               ; preds = %.lr.ph
  %81 = fcmp nsz ogt double %59, %61
  br i1 %81, label %82, label %89

82:                                               ; preds = %80
  store i8 -128, ptr %37, align 1, !tbaa !54
  br label %.sink.split

.sink.split:                                      ; preds = %65, %82
  %.sink = phi i8 [ -128, %82 ], [ %79, %65 ]
  %83 = load ptr, ptr %22, align 8, !tbaa !61
  %84 = load i32, ptr %23, align 8, !tbaa !62
  %85 = mul nsw i32 %84, %.06063
  %86 = add nsw i32 %85, %.062
  %87 = sext i32 %86 to i64
  %88 = getelementptr inbounds i8, ptr %83, i64 %87
  store i8 %.sink, ptr %88, align 1, !tbaa !54
  br label %89

89:                                               ; preds = %.sink.split, %80
  %90 = add nuw nsw i32 %.062, 1
  %91 = load i32, ptr %18, align 8, !tbaa !60
  %92 = load i32, ptr %19, align 8, !tbaa !44
  %93 = ashr i32 %91, %92
  %94 = icmp slt i32 %90, %93
  br i1 %94, label %.lr.ph, label %._crit_edge, !llvm.loop !78

._crit_edge:                                      ; preds = %89, %.preheader
  %95 = phi i32 [ %28, %.preheader ], [ %92, %89 ]
  %96 = phi i32 [ %29, %.preheader ], [ %91, %89 ]
  %97 = add nsw i32 %.06063, 1
  %exitcond.not = icmp eq i32 %97, %16
  br i1 %exitcond.not, label %._crit_edge64, label %.preheader, !llvm.loop !79

._crit_edge64:                                    ; preds = %._crit_edge, %4
  ret i32 0
}